; ModuleID = '19/2025.c'
source_filename = "19/2025.c"
target datalayout = "e-m:e-p270:32:32-p271:32:32-p272:64:64-i64:64-f80:128-n8:16:32:64-S128"
target triple = "x86_64-pc-linux-gnu"

@.str = private unnamed_addr constant [3 x i8] c"%s\00", align 1
@.str.1 = private unnamed_addr constant [4 x i8] c"%s \00", align 1

; Function Attrs: noinline nounwind uwtable
define dso_local i32 @main() #0 {
  %1 = alloca i32, align 4
  %2 = alloca [100 x i8], align 16
  %3 = alloca [30 x i8], align 16
  %4 = alloca [30 x i8], align 16
  %5 = alloca [100 x i8], align 16
  %6 = alloca [100 x i8], align 16
  %7 = alloca [20 x [100 x i8]], align 16
  %8 = alloca i32, align 4
  %9 = alloca i32, align 4
  %10 = alloca i32, align 4
  %11 = alloca i32, align 4
  %12 = alloca i32, align 4
  %13 = alloca [100 x i32], align 16
  %14 = alloca i32, align 4
  store i32 0, i32* %1, align 4
  store i32 1, i32* %10, align 4
  store i32 1, i32* %12, align 4
  store i32 1, i32* %14, align 4
  %15 = getelementptr inbounds [100 x i8], [100 x i8]* %2, i64 0, i64 0
  %16 = call i32 (i8*, ...) bitcast (i32 (...)* @gets to i32 (i8*, ...)*)(i8* %15)
  %17 = getelementptr inbounds [30 x i8], [30 x i8]* %3, i64 0, i64 0
  %18 = call i32 (i8*, ...) @__isoc99_scanf(i8* getelementptr inbounds ([3 x i8], [3 x i8]* @.str, i64 0, i64 0), i8* %17)
  %19 = getelementptr inbounds [30 x i8], [30 x i8]* %4, i64 0, i64 0
  %20 = call i32 (i8*, ...) @__isoc99_scanf(i8* getelementptr inbounds ([3 x i8], [3 x i8]* @.str, i64 0, i64 0), i8* %19)
  %21 = getelementptr inbounds [30 x i8], [30 x i8]* %3, i64 0, i64 0
  %22 = call i64 @strlen(i8* %21) #4
  %23 = trunc i64 %22 to i32
  store i32 %23, i32* %8, align 4
  %24 = getelementptr inbounds [100 x i8], [100 x i8]* %2, i64 0, i64 0
  %25 = call i64 @strlen(i8* %24) #4
  %26 = trunc i64 %25 to i32
  store i32 %26, i32* %11, align 4
  %27 = getelementptr inbounds [100 x i32], [100 x i32]* %13, i64 0, i64 0
  store i32 0, i32* %27, align 16
  store i32 0, i32* %9, align 4
  br label %28

28:                                               ; preds = %51, %0
  %29 = load i32, i32* %9, align 4
  %30 = load i32, i32* %11, align 4
  %31 = icmp slt i32 %29, %30
  br i1 %31, label %32, label %54

32:                                               ; preds = %28
  %33 = load i32, i32* %9, align 4
  %34 = sext i32 %33 to i64
  %35 = getelementptr inbounds [100 x i8], [100 x i8]* %2, i64 0, i64 %34
  %36 = load i8, i8* %35, align 1
  %37 = sext i8 %36 to i32
  %38 = icmp eq i32 %37, 32
  br i1 %38, label %39, label %50

39:                                               ; preds = %32
  %40 = load i32, i32* %9, align 4
  %41 = add nsw i32 %40, 1
  %42 = load i32, i32* %14, align 4
  %43 = sext i32 %42 to i64
  %44 = getelementptr inbounds [100 x i32], [100 x i32]* %13, i64 0, i64 %43
  store i32 %41, i32* %44, align 4
  %45 = load i32, i32* %9, align 4
  %46 = sext i32 %45 to i64
  %47 = getelementptr inbounds [100 x i8], [100 x i8]* %2, i64 0, i64 %46
  store i8 0, i8* %47, align 1
  %48 = load i32, i32* %14, align 4
  %49 = add nsw i32 %48, 1
  store i32 %49, i32* %14, align 4
  br label %50

50:                                               ; preds = %39, %32
  br label %51

51:                                               ; preds = %50
  %52 = load i32, i32* %9, align 4
  %53 = add nsw i32 %52, 1
  store i32 %53, i32* %9, align 4
  br label %28

54:                                               ; preds = %28
  store i32 0, i32* %9, align 4
  br label %55

55:                                               ; preds = %71, %54
  %56 = load i32, i32* %9, align 4
  %57 = load i32, i32* %14, align 4
  %58 = icmp slt i32 %56, %57
  br i1 %58, label %59, label %74

59:                                               ; preds = %55
  %60 = load i32, i32* %9, align 4
  %61 = sext i32 %60 to i64
  %62 = getelementptr inbounds [20 x [100 x i8]], [20 x [100 x i8]]* %7, i64 0, i64 %61
  %63 = getelementptr inbounds [100 x i8], [100 x i8]* %62, i64 0, i64 0
  %64 = load i32, i32* %9, align 4
  %65 = sext i32 %64 to i64
  %66 = getelementptr inbounds [100 x i32], [100 x i32]* %13, i64 0, i64 %65
  %67 = load i32, i32* %66, align 4
  %68 = sext i32 %67 to i64
  %69 = getelementptr inbounds [100 x i8], [100 x i8]* %2, i64 0, i64 %68
  %70 = call i8* @strcpy(i8* %63, i8* %69) #5
  br label %71

71:                                               ; preds = %59
  %72 = load i32, i32* %9, align 4
  %73 = add nsw i32 %72, 1
  store i32 %73, i32* %9, align 4
  br label %55

74:                                               ; preds = %55
  store i32 0, i32* %9, align 4
  br label %75

75:                                               ; preds = %97, %74
  %76 = load i32, i32* %9, align 4
  %77 = load i32, i32* %14, align 4
  %78 = icmp slt i32 %76, %77
  br i1 %78, label %79, label %100

79:                                               ; preds = %75
  %80 = load i32, i32* %9, align 4
  %81 = sext i32 %80 to i64
  %82 = getelementptr inbounds [100 x i32], [100 x i32]* %13, i64 0, i64 %81
  %83 = load i32, i32* %82, align 4
  %84 = sext i32 %83 to i64
  %85 = getelementptr inbounds [100 x i8], [100 x i8]* %2, i64 0, i64 %84
  %86 = getelementptr inbounds [30 x i8], [30 x i8]* %3, i64 0, i64 0
  %87 = call i32 @strcmp(i8* %85, i8* %86) #4
  %88 = icmp eq i32 %87, 0
  br i1 %88, label %89, label %96

89:                                               ; preds = %79
  %90 = load i32, i32* %9, align 4
  %91 = sext i32 %90 to i64
  %92 = getelementptr inbounds [20 x [100 x i8]], [20 x [100 x i8]]* %7, i64 0, i64 %91
  %93 = getelementptr inbounds [100 x i8], [100 x i8]* %92, i64 0, i64 0
  %94 = getelementptr inbounds [30 x i8], [30 x i8]* %4, i64 0, i64 0
  %95 = call i8* @strcpy(i8* %93, i8* %94) #5
  br label %96

96:                                               ; preds = %89, %79
  br label %97

97:                                               ; preds = %96
  %98 = load i32, i32* %9, align 4
  %99 = add nsw i32 %98, 1
  store i32 %99, i32* %9, align 4
  br label %75

100:                                              ; preds = %75
  store i32 0, i32* %9, align 4
  br label %101

101:                                              ; preds = %112, %100
  %102 = load i32, i32* %9, align 4
  %103 = load i32, i32* %14, align 4
  %104 = sub nsw i32 %103, 1
  %105 = icmp slt i32 %102, %104
  br i1 %105, label %106, label %115

106:                                              ; preds = %101
  %107 = load i32, i32* %9, align 4
  %108 = sext i32 %107 to i64
  %109 = getelementptr inbounds [20 x [100 x i8]], [20 x [100 x i8]]* %7, i64 0, i64 %108
  %110 = getelementptr inbounds [100 x i8], [100 x i8]* %109, i64 0, i64 0
  %111 = call i32 (i8*, ...) @printf(i8* getelementptr inbounds ([4 x i8], [4 x i8]* @.str.1, i64 0, i64 0), i8* %110)
  br label %112

112:                                              ; preds = %106
  %113 = load i32, i32* %9, align 4
  %114 = add nsw i32 %113, 1
  store i32 %114, i32* %9, align 4
  br label %101

115:                                              ; preds = %101
  %116 = load i32, i32* %14, align 4
  %117 = sub nsw i32 %116, 1
  %118 = sext i32 %117 to i64
  %119 = getelementptr inbounds [20 x [100 x i8]], [20 x [100 x i8]]* %7, i64 0, i64 %118
  %120 = getelementptr inbounds [100 x i8], [100 x i8]* %119, i64 0, i64 0
  %121 = call i32 (i8*, ...) @printf(i8* getelementptr inbounds ([3 x i8], [3 x i8]* @.str, i64 0, i64 0), i8* %120)
  ret i32 0
}

declare dso_local i32 @gets(...) #1

declare dso_local i32 @__isoc99_scanf(i8*, ...) #1

; Function Attrs: nounwind readonly
declare dso_local i64 @strlen(i8*) #2

; Function Attrs: nounwind
declare dso_local i8* @strcpy(i8*, i8*) #3

; Function Attrs: nounwind readonly
declare dso_local i32 @strcmp(i8*, i8*) #2

declare dso_local i32 @printf(i8*, ...) #1


!llvm.module.flags = !{!0}
!llvm.ident = !{!1}

!0 = !{i32 1, !"wchar_size", i32 4}
!1 = !{!"clang version 10.0.0-4ubuntu1 "}
